target datalayout = "e-m:e-p270:32:32-p271:32:32-p272:64:64-i64:64-i128:128-f80:128-n8:16:32:64-S128"
target triple = "x86_64-pc-linux-gnu"

%struct._object = type { %union.anon, ptr }
%union.anon = type { i64 }
%struct._structmodulestate = type { ptr, ptr, ptr, ptr }
%struct.Py_buffer = type { ptr, ptr, i64, i64, i32, i32, ptr, ptr, ptr, ptr, ptr }
%struct.PyModuleObject = type { %struct._object, ptr, ptr, ptr, ptr, ptr }
%struct.PyStructObject = type { %struct._object, i64, i64, ptr, ptr, ptr }

@.str.23 = private unnamed_addr constant [38 x i8] c"unpack requires a buffer of %zd bytes\00", align 1

; Function Attrs: inlinehint nounwind uwtable
define internal ptr @_PyModule_GetState(ptr noundef %0) #2 {
  %2 = alloca ptr, align 8
  store ptr %0, ptr %2, align 8, !tbaa !3
  %3 = load ptr, ptr %2, align 8, !tbaa !3
  %4 = getelementptr inbounds nuw %struct.PyModuleObject, ptr %3, i32 0, i32 3
  %5 = load ptr, ptr %4, align 8, !tbaa !24
  ret ptr %5
}

; Function Attrs: inlinehint nounwind uwtable
define internal ptr @get_struct_state(ptr noundef %0) #2 {
  %2 = alloca ptr, align 8
  %3 = alloca ptr, align 8
  store ptr %0, ptr %2, align 8, !tbaa !3
  call void @llvm.lifetime.start.p0(i64 8, ptr %3) #8
  %4 = load ptr, ptr %2, align 8, !tbaa !3
  %5 = call ptr @_PyModule_GetState(ptr noundef %4)
  store ptr %5, ptr %3, align 8, !tbaa !8
  %6 = load ptr, ptr %3, align 8, !tbaa !8
  call void @llvm.lifetime.end.p0(i64 8, ptr %3) #8
  ret ptr %6
}

; Function Attrs: inlinehint nounwind uwtable
define internal ptr @_Py_TYPE(ptr noundef %0) #2 {
  %2 = alloca ptr, align 8
  store ptr %0, ptr %2, align 8, !tbaa !3
  %3 = load ptr, ptr %2, align 8, !tbaa !3
  %4 = getelementptr inbounds nuw %struct._object, ptr %3, i32 0, i32 1
  %5 = load ptr, ptr %4, align 8, !tbaa !41
  ret ptr %5
}

; Function Attrs: nounwind uwtable
define internal ptr @Struct_unpack_impl(ptr noundef %0, ptr noundef %1) #0 {
  %3 = alloca ptr, align 8
  %4 = alloca ptr, align 8
  %5 = alloca ptr, align 8
  %6 = alloca ptr, align 8
  %7 = alloca i32, align 4
  store ptr %0, ptr %4, align 8, !tbaa !8
  store ptr %1, ptr %5, align 8, !tbaa !8
  call void @llvm.lifetime.start.p0(i64 8, ptr %6) #8
  %8 = load ptr, ptr %4, align 8, !tbaa !8
  %9 = call ptr @_Py_TYPE(ptr noundef %8)
  %10 = call ptr @PyType_GetModuleByDef(ptr noundef %9, ptr noundef @_structmodule)
  %11 = call ptr @get_struct_state(ptr noundef %10)
  store ptr %11, ptr %6, align 8, !tbaa !8
  %12 = load ptr, ptr %5, align 8, !tbaa !8
  %13 = getelementptr inbounds nuw %struct.Py_buffer, ptr %12, i32 0, i32 2
  %14 = load i64, ptr %13, align 8, !tbaa !70
  %15 = load ptr, ptr %4, align 8, !tbaa !8
  %16 = getelementptr inbounds nuw %struct.PyStructObject, ptr %15, i32 0, i32 1
  %17 = load i64, ptr %16, align 8, !tbaa !29
  %18 = icmp ne i64 %14, %17
  br i1 %18, label %19, label %27

19:                                               ; preds = %2
  %20 = load ptr, ptr %6, align 8, !tbaa !8
  %21 = getelementptr inbounds nuw %struct._structmodulestate, ptr %20, i32 0, i32 3
  %22 = load ptr, ptr %21, align 8, !tbaa !15
  %23 = load ptr, ptr %4, align 8, !tbaa !8
  %24 = getelementptr inbounds nuw %struct.PyStructObject, ptr %23, i32 0, i32 1
  %25 = load i64, ptr %24, align 8, !tbaa !29
  %26 = call ptr (ptr, ptr, ...) @PyErr_Format(ptr noundef %22, ptr noundef @.str.23, i64 noundef %25)
  store ptr null, ptr %3, align 8
  store i32 1, ptr %7, align 4
  br label %34

27:                                               ; preds = %2
  %28 = load ptr, ptr %4, align 8, !tbaa !8
  %29 = load ptr, ptr %5, align 8, !tbaa !8
  %30 = getelementptr inbounds nuw %struct.Py_buffer, ptr %29, i32 0, i32 0
  %31 = load ptr, ptr %30, align 8, !tbaa !71
  %32 = load ptr, ptr %6, align 8, !tbaa !8
  %33 = call ptr @s_unpack_internal(ptr noundef %28, ptr noundef %31, ptr noundef %32)
  store ptr %33, ptr %3, align 8
  store i32 1, ptr %7, align 4
  br label %34

34:                                               ; preds = %27, %19
  call void @llvm.lifetime.end.p0(i64 8, ptr %6) #8
  %35 = load ptr, ptr %3, align 8
  ret ptr %35
}

; Function Attrs: nounwind uwtable
define internal ptr @Struct_unpack(ptr noundef %0, ptr noundef %1) #0 {
  %3 = alloca ptr, align 8
  %4 = alloca ptr, align 8
  %5 = alloca ptr, align 8
  %6 = alloca %struct.Py_buffer, align 8
  store ptr %0, ptr %3, align 8, !tbaa !3
  store ptr %1, ptr %4, align 8, !tbaa !3
  call void @llvm.lifetime.start.p0(i64 8, ptr %5) #8
  store ptr null, ptr %5, align 8, !tbaa !3
  call void @llvm.lifetime.start.p0(i64 80, ptr %6) #8
  call void @llvm.memset.p0.i64(ptr align 8 %6, i8 0, i64 80, i1 false)
  %7 = load ptr, ptr %4, align 8, !tbaa !3
  %8 = call i32 @PyObject_GetBuffer(ptr noundef %7, ptr noundef %6, i32 noundef 0)
  %9 = icmp ne i32 %8, 0
  br i1 %9, label %10, label %11

10:                                               ; preds = %2
  br label %14

11:                                               ; preds = %2
  %12 = load ptr, ptr %3, align 8, !tbaa !3
  %13 = call ptr @Struct_unpack_impl(ptr noundef %12, ptr noundef %6)
  store ptr %13, ptr %5, align 8, !tbaa !3
  br label %14

14:                                               ; preds = %11, %10
  %15 = getelementptr inbounds nuw %struct.Py_buffer, ptr %6, i32 0, i32 1
  %16 = load ptr, ptr %15, align 8, !tbaa !20
  %17 = icmp ne ptr %16, null
  br i1 %17, label %18, label %19

18:                                               ; preds = %14
  call void @PyBuffer_Release(ptr noundef %6)
  br label %19

19:                                               ; preds = %18, %14
  %20 = load ptr, ptr %5, align 8, !tbaa !3
  call void @llvm.lifetime.end.p0(i64 80, ptr %6) #8
  call void @llvm.lifetime.end.p0(i64 8, ptr %5) #8
  ret ptr %20
}