; Function Attrs: nounwind uwtable
define internal ptr @Struct_unpack(ptr noundef readonly captures(none) %0, ptr noundef %1) #0 {
  %3 = alloca %struct.Py_buffer, align 8
  call void @llvm.lifetime.start.p0(i64 80, ptr nonnull %3) #7
  call void @llvm.memset.p0.i64(ptr noundef nonnull align 8 dereferenceable(80) %3, i8 0, i64 80, i1 false)
  %4 = call i32 @PyObject_GetBuffer(ptr noundef %1, ptr noundef nonnull %3, i32 noundef 0) #7
  %.not = icmp eq i32 %4, 0
  br i1 %.not, label %5, label %Struct_unpack_impl.exit

5:                                                ; preds = %2
  %6 = getelementptr i8, ptr %0, i64 8
  %.val10.i = load ptr, ptr %6, align 8, !tbaa !24
  %7 = call ptr @PyType_GetModuleByDef(ptr noundef %.val10.i, ptr noundef nonnull @_structmodule) #7
  %8 = getelementptr i8, ptr %7, i64 32
  %.val.i = load ptr, ptr %8, align 8, !tbaa !3
  %9 = getelementptr inbounds nuw i8, ptr %3, i64 16
  %10 = load i64, ptr %9, align 8, !tbaa !25
  %11 = getelementptr inbounds nuw i8, ptr %0, i64 16
  %12 = load i64, ptr %11, align 8, !tbaa !20
  %.not.i = icmp eq i64 %10, %12
  br i1 %.not.i, label %17, label %13

13:                                               ; preds = %5
  %14 = getelementptr inbounds nuw i8, ptr %.val.i, i64 24
  %15 = load ptr, ptr %14, align 8, !tbaa !16
  %16 = call ptr (ptr, ptr, ...) @PyErr_Format(ptr noundef %15, ptr noundef nonnull @.str.23, i64 noundef %12) #7
  br label %Struct_unpack_impl.exit

17:                                               ; preds = %5
  %18 = load ptr, ptr %3, align 8, !tbaa !30
  %19 = call fastcc ptr @s_unpack_internal(ptr noundef nonnull readonly %0, ptr noundef %18, ptr noundef %.val.i)
  br label %Struct_unpack_impl.exit

Struct_unpack_impl.exit:                          ; preds = %17, %13, %2
  %.0 = phi ptr [ null, %2 ], [ null, %13 ], [ %19, %17 ]
  %20 = getelementptr inbounds nuw i8, ptr %3, i64 8
  %21 = load ptr, ptr %20, align 8, !tbaa !31
  %.not3 = icmp eq ptr %21, null
  br i1 %.not3, label %23, label %22

22:                                               ; preds = %Struct_unpack_impl.exit
  call void @PyBuffer_Release(ptr noundef nonnull %3) #7
  br label %23

23:                                               ; preds = %22, %Struct_unpack_impl.exit
  call void @llvm.lifetime.end.p0(i64 80, ptr nonnull %3) #7
  ret ptr %.0
}